; Function Attrs: mustprogress nounwind uwtable
define dso_local void @_ZN4llvm17DecodeMOVDDUPMaskEjRNS_15SmallVectorImplIiEE(i32 noundef %0, ptr noundef nonnull align 8 dereferenceable(16) %1) local_unnamed_addr #0 {
  %.not = icmp eq i32 %0, 0
  br i1 %.not, label %._crit_edge, label %.preheader.lr.ph

.preheader.lr.ph:                                 ; preds = %2
  %3 = getelementptr inbounds nuw i8, ptr %1, i64 16
  br label %.preheader

.preheader:                                       ; preds = %.preheader.lr.ph, %15
  %.068 = phi i32 [ 0, %.preheader.lr.ph ], [ %16, %15 ]
  br label %4

4:                                                ; preds = %.preheader, %_ZN4llvm23SmallVectorTemplateBaseIiLb1EE9push_backEi.exit
  %5 = phi i1 [ true, %.preheader ], [ false, %_ZN4llvm23SmallVectorTemplateBaseIiLb1EE9push_backEi.exit ]
  %6 = tail call noundef i64 @_ZNK4llvm15SmallVectorBaseIjE4sizeEv(ptr noundef nonnull align 8 dereferenceable(16) %1) #4
  %7 = add i64 %6, 1
  %8 = tail call noundef i64 @_ZNK4llvm15SmallVectorBaseIjE8capacityEv(ptr noundef nonnull align 8 dereferenceable(16) %1) #4
  %.not.i.i.i = icmp ugt i64 %7, %8
  br i1 %.not.i.i.i, label %9, label %_ZN4llvm23SmallVectorTemplateBaseIiLb1EE9push_backEi.exit

9:                                                ; preds = %4
  tail call void @_ZN4llvm15SmallVectorBaseIjE8grow_podEPvmm(ptr noundef nonnull align 8 dereferenceable(16) %1, ptr noundef nonnull %3, i64 noundef %7, i64 noundef 4) #4
  br label %_ZN4llvm23SmallVectorTemplateBaseIiLb1EE9push_backEi.exit

_ZN4llvm23SmallVectorTemplateBaseIiLb1EE9push_backEi.exit: ; preds = %4, %9
  %10 = load ptr, ptr %1, align 8
  %11 = tail call noundef i64 @_ZNK4llvm15SmallVectorBaseIjE4sizeEv(ptr noundef nonnull align 8 dereferenceable(16) %1) #4
  %12 = getelementptr inbounds i32, ptr %10, i64 %11
  store i32 %.068, ptr %12, align 1
  %13 = tail call noundef i64 @_ZNK4llvm15SmallVectorBaseIjE4sizeEv(ptr noundef nonnull align 8 dereferenceable(16) %1) #4
  %14 = add i64 %13, 1
  tail call void @_ZN4llvm15SmallVectorBaseIjE8set_sizeEm(ptr noundef nonnull align 8 dereferenceable(16) %1, i64 noundef %14) #4
  br i1 %5, label %4, label %15, !llvm.loop !13

15:                                               ; preds = %_ZN4llvm23SmallVectorTemplateBaseIiLb1EE9push_backEi.exit
  %16 = add i32 %.068, 2
  %17 = icmp ult i32 %16, %0
  br i1 %17, label %.preheader, label %._crit_edge, !llvm.loop !14

._crit_edge:                                      ; preds = %15, %2
  ret void
}